target datalayout = "e-m:e-p270:32:32-p271:32:32-p272:64:64-i64:64-i128:128-f80:128-n8:16:32:64-S128"
target triple = "x86_64-pc-linux-gnu"

@__const._blend_Lab_scale.scale = private unnamed_addr constant [4 x float] [float 0x3F847AE140000000, float 7.812500e-03, float 7.812500e-03, float 1.000000e+00], align 16
@__const._blend_Lab_rescale.scale = private unnamed_addr constant [4 x float] [float 1.000000e+02, float 1.280000e+02, float 1.280000e+02, float 1.000000e+00], align 16

; Function Attrs: inlinehint nounwind uwtable
define internal void @_blend_Lab_rescale(ptr noundef %0, ptr noundef %1) #2 {
  %3 = alloca ptr, align 8
  %4 = alloca ptr, align 8
  %5 = alloca [4 x float], align 16
  %6 = alloca i64, align 8
  store ptr %0, ptr %3, align 8, !tbaa !11
  store ptr %1, ptr %4, align 8, !tbaa !11
  call void @llvm.lifetime.start.p0(i64 16, ptr %5) #8
  call void @llvm.memcpy.p0.p0.i64(ptr align 16 %5, ptr align 16 @__const._blend_Lab_rescale.scale, i64 16, i1 false)
  call void @llvm.lifetime.start.p0(i64 8, ptr %6) #8
  store i64 0, ptr %6, align 8, !tbaa !43
  br label %7

7:                                                ; preds = %23, %2
  %8 = load i64, ptr %6, align 8, !tbaa !43
  %9 = icmp ult i64 %8, 4
  br i1 %9, label %11, label %10

10:                                               ; preds = %7
  call void @llvm.lifetime.end.p0(i64 8, ptr %6) #8
  br label %26

11:                                               ; preds = %7
  %12 = load ptr, ptr %3, align 8, !tbaa !11
  %13 = load i64, ptr %6, align 8, !tbaa !43
  %14 = getelementptr inbounds nuw float, ptr %12, i64 %13
  %15 = load float, ptr %14, align 4, !tbaa !45
  %16 = load i64, ptr %6, align 8, !tbaa !43
  %17 = getelementptr inbounds nuw [4 x float], ptr %5, i64 0, i64 %16
  %18 = load float, ptr %17, align 4, !tbaa !45
  %19 = fmul reassoc nsz arcp contract afn float %15, %18
  %20 = load ptr, ptr %4, align 8, !tbaa !11
  %21 = load i64, ptr %6, align 8, !tbaa !43
  %22 = getelementptr inbounds nuw float, ptr %20, i64 %21
  store float %19, ptr %22, align 4, !tbaa !45
  br label %23

23:                                               ; preds = %11
  %24 = load i64, ptr %6, align 8, !tbaa !43
  %25 = add i64 %24, 1
  store i64 %25, ptr %6, align 8, !tbaa !43
  br label %7

26:                                               ; preds = %10
  call void @llvm.lifetime.end.p0(i64 16, ptr %5) #8
  ret void
}

; Function Attrs: inlinehint nounwind uwtable
define internal float @_CLAMP(float noundef %0, float noundef %1, float noundef %2) #2 {
  %4 = alloca float, align 4
  %5 = alloca float, align 4
  %6 = alloca float, align 4
  store float %0, ptr %4, align 4, !tbaa !45
  store float %1, ptr %5, align 4, !tbaa !45
  store float %2, ptr %6, align 4, !tbaa !45
  %7 = load float, ptr %4, align 4, !tbaa !45
  %8 = load float, ptr %5, align 4, !tbaa !45
  %9 = call reassoc nsz arcp contract afn float @llvm.maxnum.f32(float %7, float %8)
  %10 = load float, ptr %6, align 4, !tbaa !45
  %11 = call reassoc nsz arcp contract afn float @llvm.minnum.f32(float %9, float %10)
  ret float %11
}

; Function Attrs: inlinehint nounwind uwtable
define internal void @_blend_Lab_scale(ptr noundef %0, ptr noundef %1) #2 {
  %3 = alloca ptr, align 8
  %4 = alloca ptr, align 8
  %5 = alloca [4 x float], align 16
  %6 = alloca i64, align 8
  store ptr %0, ptr %3, align 8, !tbaa !11
  store ptr %1, ptr %4, align 8, !tbaa !11
  call void @llvm.lifetime.start.p0(i64 16, ptr %5) #8
  call void @llvm.memcpy.p0.p0.i64(ptr align 16 %5, ptr align 16 @__const._blend_Lab_scale.scale, i64 16, i1 false)
  call void @llvm.lifetime.start.p0(i64 8, ptr %6) #8
  store i64 0, ptr %6, align 8, !tbaa !43
  br label %7

7:                                                ; preds = %23, %2
  %8 = load i64, ptr %6, align 8, !tbaa !43
  %9 = icmp ult i64 %8, 4
  br i1 %9, label %11, label %10

10:                                               ; preds = %7
  call void @llvm.lifetime.end.p0(i64 8, ptr %6) #8
  br label %26

11:                                               ; preds = %7
  %12 = load ptr, ptr %3, align 8, !tbaa !11
  %13 = load i64, ptr %6, align 8, !tbaa !43
  %14 = getelementptr inbounds nuw float, ptr %12, i64 %13
  %15 = load float, ptr %14, align 4, !tbaa !45
  %16 = load i64, ptr %6, align 8, !tbaa !43
  %17 = getelementptr inbounds nuw [4 x float], ptr %5, i64 0, i64 %16
  %18 = load float, ptr %17, align 4, !tbaa !45
  %19 = fmul reassoc nsz arcp contract afn float %15, %18
  %20 = load ptr, ptr %4, align 8, !tbaa !11
  %21 = load i64, ptr %6, align 8, !tbaa !43
  %22 = getelementptr inbounds nuw float, ptr %20, i64 %21
  store float %19, ptr %22, align 4, !tbaa !45
  br label %23

23:                                               ; preds = %11
  %24 = load i64, ptr %6, align 8, !tbaa !43
  %25 = add i64 %24, 1
  store i64 %25, ptr %6, align 8, !tbaa !43
  br label %7

26:                                               ; preds = %10
  call void @llvm.lifetime.end.p0(i64 16, ptr %5) #8
  ret void
}

; Function Attrs: nounwind uwtable
define internal void @_blend_pinlight(ptr noundef %0, ptr noundef %1, ptr noundef %2, ptr noalias noundef %3, i64 noundef %4, ptr noundef %5, ptr noundef %6) #0 {
  %8 = alloca ptr, align 8
  %9 = alloca ptr, align 8
  %10 = alloca ptr, align 8
  %11 = alloca ptr, align 8
  %12 = alloca i64, align 8
  %13 = alloca ptr, align 8
  %14 = alloca ptr, align 8
  %15 = alloca i64, align 8
  %16 = alloca i64, align 8
  %17 = alloca float, align 4
  %18 = alloca float, align 4
  %19 = alloca [4 x float], align 16
  %20 = alloca [4 x float], align 16
  %21 = alloca float, align 4
  %22 = alloca float, align 4
  %23 = alloca float, align 4
  %24 = alloca float, align 4
  %25 = alloca float, align 4
  %26 = alloca float, align 4
  store ptr %0, ptr %8, align 8, !tbaa !11
  store ptr %1, ptr %9, align 8, !tbaa !11
  store ptr %2, ptr %10, align 8, !tbaa !11
  store ptr %3, ptr %11, align 8, !tbaa !11
  store i64 %4, ptr %12, align 8, !tbaa !43
  store ptr %5, ptr %13, align 8, !tbaa !11
  store ptr %6, ptr %14, align 8, !tbaa !11
  call void @llvm.lifetime.start.p0(i64 8, ptr %15) #8
  store i64 0, ptr %15, align 8, !tbaa !43
  call void @llvm.lifetime.start.p0(i64 8, ptr %16) #8
  store i64 0, ptr %16, align 8, !tbaa !43
  br label %27

27:                                               ; preds = %141, %7
  %28 = load i64, ptr %15, align 8, !tbaa !43
  %29 = load i64, ptr %12, align 8, !tbaa !43
  %30 = icmp ult i64 %28, %29
  br i1 %30, label %32, label %31

31:                                               ; preds = %27
  call void @llvm.lifetime.end.p0(i64 8, ptr %16) #8
  call void @llvm.lifetime.end.p0(i64 8, ptr %15) #8
  br label %146

32:                                               ; preds = %27
  call void @llvm.lifetime.start.p0(i64 4, ptr %17) #8
  %33 = load ptr, ptr %11, align 8, !tbaa !11
  %34 = load i64, ptr %15, align 8, !tbaa !43
  %35 = getelementptr inbounds nuw float, ptr %33, i64 %34
  %36 = load float, ptr %35, align 4, !tbaa !45
  store float %36, ptr %17, align 4, !tbaa !45
  call void @llvm.lifetime.start.p0(i64 4, ptr %18) #8
  %37 = load float, ptr %17, align 4, !tbaa !45
  %38 = load float, ptr %17, align 4, !tbaa !45
  %39 = fmul reassoc nsz arcp contract afn float %37, %38
  store float %39, ptr %18, align 4, !tbaa !45
  call void @llvm.lifetime.start.p0(i64 16, ptr %19) #8
  call void @llvm.lifetime.start.p0(i64 16, ptr %20) #8
  %40 = load ptr, ptr %8, align 8, !tbaa !11
  %41 = load i64, ptr %16, align 8, !tbaa !43
  %42 = getelementptr inbounds nuw float, ptr %40, i64 %41
  %43 = getelementptr inbounds [4 x float], ptr %19, i64 0, i64 0
  call void @_blend_Lab_scale(ptr noundef %42, ptr noundef %43)
  %44 = load ptr, ptr %9, align 8, !tbaa !11
  %45 = load i64, ptr %16, align 8, !tbaa !43
  %46 = getelementptr inbounds nuw float, ptr %44, i64 %45
  %47 = getelementptr inbounds [4 x float], ptr %20, i64 0, i64 0
  call void @_blend_Lab_scale(ptr noundef %46, ptr noundef %47)
  call void @llvm.lifetime.start.p0(i64 4, ptr %21) #8
  store float 0.000000e+00, ptr %21, align 4, !tbaa !45
  call void @llvm.lifetime.start.p0(i64 4, ptr %22) #8
  %48 = load ptr, ptr %14, align 8, !tbaa !11
  %49 = getelementptr inbounds float, ptr %48, i64 0
  %50 = load float, ptr %49, align 4, !tbaa !45
  %51 = load ptr, ptr %13, align 8, !tbaa !11
  %52 = getelementptr inbounds float, ptr %51, i64 0
  %53 = load float, ptr %52, align 4, !tbaa !45
  %54 = call reassoc nsz arcp contract afn float @llvm.fabs.f32(float %53)
  %55 = fadd reassoc nsz arcp contract afn float %50, %54
  store float %55, ptr %22, align 4, !tbaa !45
  call void @llvm.lifetime.start.p0(i64 4, ptr %23) #8
  %56 = getelementptr inbounds [4 x float], ptr %19, i64 0, i64 0
  %57 = load float, ptr %56, align 16, !tbaa !45
  %58 = load ptr, ptr %13, align 8, !tbaa !11
  %59 = getelementptr inbounds float, ptr %58, i64 0
  %60 = load float, ptr %59, align 4, !tbaa !45
  %61 = call reassoc nsz arcp contract afn float @llvm.fabs.f32(float %60)
  %62 = fadd reassoc nsz arcp contract afn float %57, %61
  %63 = load float, ptr %22, align 4, !tbaa !45
  %64 = call reassoc nsz arcp contract afn float @_CLAMP(float noundef %62, float noundef 0.000000e+00, float noundef %63)
  store float %64, ptr %23, align 4, !tbaa !45
  call void @llvm.lifetime.start.p0(i64 4, ptr %24) #8
  %65 = getelementptr inbounds [4 x float], ptr %20, i64 0, i64 0
  %66 = load float, ptr %65, align 16, !tbaa !45
  %67 = load ptr, ptr %13, align 8, !tbaa !11
  %68 = getelementptr inbounds float, ptr %67, i64 0
  %69 = load float, ptr %68, align 4, !tbaa !45
  %70 = call reassoc nsz arcp contract afn float @llvm.fabs.f32(float %69)
  %71 = fadd reassoc nsz arcp contract afn float %66, %70
  %72 = load float, ptr %22, align 4, !tbaa !45
  %73 = call reassoc nsz arcp contract afn float @_CLAMP(float noundef %71, float noundef 0.000000e+00, float noundef %72)
  store float %73, ptr %24, align 4, !tbaa !45
  call void @llvm.lifetime.start.p0(i64 4, ptr %25) #8
  %74 = load float, ptr %22, align 4, !tbaa !45
  %75 = fdiv reassoc nsz arcp contract afn float %74, 2.000000e+00
  store float %75, ptr %25, align 4, !tbaa !45
  call void @llvm.lifetime.start.p0(i64 4, ptr %26) #8
  %76 = load float, ptr %22, align 4, !tbaa !45
  %77 = fmul reassoc nsz arcp contract afn float %76, 2.000000e+00
  store float %77, ptr %26, align 4, !tbaa !45
  %78 = load float, ptr %23, align 4, !tbaa !45
  %79 = load float, ptr %18, align 4, !tbaa !45
  %80 = fsub reassoc nsz arcp contract afn float 1.000000e+00, %79
  %81 = fmul reassoc nsz arcp contract afn float %78, %80
  %82 = load float, ptr %24, align 4, !tbaa !45
  %83 = load float, ptr %25, align 4, !tbaa !45
  %84 = fcmp reassoc nsz arcp contract afn ogt float %82, %83
  br i1 %84, label %85, label %93

85:                                               ; preds = %32
  %86 = load float, ptr %23, align 4, !tbaa !45
  %87 = load float, ptr %26, align 4, !tbaa !45
  %88 = load float, ptr %24, align 4, !tbaa !45
  %89 = load float, ptr %25, align 4, !tbaa !45
  %90 = fsub reassoc nsz arcp contract afn float %88, %89
  %91 = fmul reassoc nsz arcp contract afn float %87, %90
  %92 = call reassoc nsz arcp contract afn float @llvm.maxnum.f32(float %86, float %91)
  br label %99

93:                                               ; preds = %32
  %94 = load float, ptr %23, align 4, !tbaa !45
  %95 = load float, ptr %26, align 4, !tbaa !45
  %96 = load float, ptr %24, align 4, !tbaa !45
  %97 = fmul reassoc nsz arcp contract afn float %95, %96
  %98 = call reassoc nsz arcp contract afn float @llvm.minnum.f32(float %94, float %97)
  br label %99

99:                                               ; preds = %93, %85
  %100 = phi reassoc nsz arcp contract afn float [ %92, %85 ], [ %98, %93 ]
  %101 = load float, ptr %18, align 4, !tbaa !45
  %102 = fmul reassoc nsz arcp contract afn float %100, %101
  %103 = fadd reassoc nsz arcp contract afn float %81, %102
  %104 = load float, ptr %22, align 4, !tbaa !45
  %105 = call reassoc nsz arcp contract afn float @_CLAMP(float noundef %103, float noundef 0.000000e+00, float noundef %104)
  %106 = load ptr, ptr %13, align 8, !tbaa !11
  %107 = getelementptr inbounds float, ptr %106, i64 0
  %108 = load float, ptr %107, align 4, !tbaa !45
  %109 = call reassoc nsz arcp contract afn float @llvm.fabs.f32(float %108)
  %110 = fsub reassoc nsz arcp contract afn float %105, %109
  %111 = getelementptr inbounds [4 x float], ptr %20, i64 0, i64 0
  store float %110, ptr %111, align 16, !tbaa !45
  %112 = getelementptr inbounds [4 x float], ptr %19, i64 0, i64 1
  %113 = load float, ptr %112, align 4, !tbaa !45
  %114 = load ptr, ptr %13, align 8, !tbaa !11
  %115 = getelementptr inbounds float, ptr %114, i64 1
  %116 = load float, ptr %115, align 4, !tbaa !45
  %117 = load ptr, ptr %14, align 8, !tbaa !11
  %118 = getelementptr inbounds float, ptr %117, i64 1
  %119 = load float, ptr %118, align 4, !tbaa !45
  %120 = call reassoc nsz arcp contract afn float @_CLAMP(float noundef %113, float noundef %116, float noundef %119)
  %121 = getelementptr inbounds [4 x float], ptr %20, i64 0, i64 1
  store float %120, ptr %121, align 4, !tbaa !45
  %122 = getelementptr inbounds [4 x float], ptr %19, i64 0, i64 2
  %123 = load float, ptr %122, align 8, !tbaa !45
  %124 = load ptr, ptr %13, align 8, !tbaa !11
  %125 = getelementptr inbounds float, ptr %124, i64 2
  %126 = load float, ptr %125, align 4, !tbaa !45
  %127 = load ptr, ptr %14, align 8, !tbaa !11
  %128 = getelementptr inbounds float, ptr %127, i64 2
  %129 = load float, ptr %128, align 4, !tbaa !45
  %130 = call reassoc nsz arcp contract afn float @_CLAMP(float noundef %123, float noundef %126, float noundef %129)
  %131 = getelementptr inbounds [4 x float], ptr %20, i64 0, i64 2
  store float %130, ptr %131, align 8, !tbaa !45
  %132 = getelementptr inbounds [4 x float], ptr %20, i64 0, i64 0
  %133 = load ptr, ptr %10, align 8, !tbaa !11
  %134 = load i64, ptr %16, align 8, !tbaa !43
  %135 = getelementptr inbounds nuw float, ptr %133, i64 %134
  call void @_blend_Lab_rescale(ptr noundef %132, ptr noundef %135)
  %136 = load float, ptr %17, align 4, !tbaa !45
  %137 = load ptr, ptr %10, align 8, !tbaa !11
  %138 = load i64, ptr %16, align 8, !tbaa !43
  %139 = add i64 %138, 3
  %140 = getelementptr inbounds nuw float, ptr %137, i64 %139
  store float %136, ptr %140, align 4, !tbaa !45
  call void @llvm.lifetime.end.p0(i64 4, ptr %26) #8
  call void @llvm.lifetime.end.p0(i64 4, ptr %25) #8
  call void @llvm.lifetime.end.p0(i64 4, ptr %24) #8
  call void @llvm.lifetime.end.p0(i64 4, ptr %23) #8
  call void @llvm.lifetime.end.p0(i64 4, ptr %22) #8
  call void @llvm.lifetime.end.p0(i64 4, ptr %21) #8
  call void @llvm.lifetime.end.p0(i64 16, ptr %20) #8
  call void @llvm.lifetime.end.p0(i64 16, ptr %19) #8
  call void @llvm.lifetime.end.p0(i64 4, ptr %18) #8
  call void @llvm.lifetime.end.p0(i64 4, ptr %17) #8
  br label %141

141:                                              ; preds = %99
  %142 = load i64, ptr %15, align 8, !tbaa !43
  %143 = add i64 %142, 1
  store i64 %143, ptr %15, align 8, !tbaa !43
  %144 = load i64, ptr %16, align 8, !tbaa !43
  %145 = add i64 %144, 4
  store i64 %145, ptr %16, align 8, !tbaa !43
  br label %27

146:                                              ; preds = %31
  ret void
}