; Function Attrs: nofree norecurse nosync nounwind memory(argmem: readwrite) uwtable
define internal void @_blend_pinlight(ptr noundef readonly captures(none) %0, ptr noundef readonly captures(none) %1, ptr noundef writeonly captures(none) %2, ptr noalias noundef readonly captures(none) %3, i64 noundef %4, ptr noundef readonly captures(none) %5, ptr noundef readonly captures(none) %6) unnamed_addr #11 {
  %8 = alloca [4 x float], align 16
  %9 = alloca [4 x float], align 16
  %.not = icmp eq i64 %4, 0
  br i1 %.not, label %._crit_edge, label %.lr.ph

.lr.ph:                                           ; preds = %7
  %10 = getelementptr inbounds nuw i8, ptr %8, i64 4
  %11 = getelementptr inbounds nuw i8, ptr %5, i64 4
  %12 = getelementptr inbounds nuw i8, ptr %6, i64 4
  %13 = getelementptr inbounds nuw i8, ptr %9, i64 4
  %14 = getelementptr inbounds nuw i8, ptr %8, i64 8
  %15 = getelementptr inbounds nuw i8, ptr %5, i64 8
  %16 = getelementptr inbounds nuw i8, ptr %6, i64 8
  %17 = getelementptr inbounds nuw i8, ptr %9, i64 8
  br label %18

._crit_edge:                                      ; preds = %_blend_Lab_rescale.exit, %7
  ret void

18:                                               ; preds = %.lr.ph, %_blend_Lab_rescale.exit
  %.051 = phi i64 [ 0, %.lr.ph ], [ %91, %_blend_Lab_rescale.exit ]
  %.04250 = phi i64 [ 0, %.lr.ph ], [ %92, %_blend_Lab_rescale.exit ]
  %19 = getelementptr inbounds nuw float, ptr %3, i64 %.051
  %20 = load float, ptr %19, align 4, !tbaa !36
  call void @llvm.lifetime.start.p0(i64 16, ptr nonnull %8) #8
  call void @llvm.lifetime.start.p0(i64 16, ptr nonnull %9) #8
  %21 = getelementptr inbounds nuw float, ptr %0, i64 %.04250
  br label %22

22:                                               ; preds = %22, %18
  %.06.i = phi i64 [ 0, %18 ], [ %29, %22 ]
  %23 = getelementptr inbounds nuw float, ptr %21, i64 %.06.i
  %24 = load float, ptr %23, align 4, !tbaa !36
  %25 = getelementptr inbounds nuw [4 x float], ptr @__const._blend_Lab_scale.scale, i64 0, i64 %.06.i
  %26 = load float, ptr %25, align 4, !tbaa !36
  %27 = fmul reassoc nsz arcp contract afn float %26, %24
  %28 = getelementptr inbounds nuw float, ptr %8, i64 %.06.i
  store float %27, ptr %28, align 4, !tbaa !36
  %29 = add nuw nsw i64 %.06.i, 1
  %exitcond.not.i = icmp eq i64 %29, 4
  br i1 %exitcond.not.i, label %_blend_Lab_scale.exit, label %22

_blend_Lab_scale.exit:                            ; preds = %22
  %30 = getelementptr inbounds nuw float, ptr %1, i64 %.04250
  br label %31

31:                                               ; preds = %31, %_blend_Lab_scale.exit
  %.06.i45 = phi i64 [ 0, %_blend_Lab_scale.exit ], [ %38, %31 ]
  %32 = getelementptr inbounds nuw float, ptr %30, i64 %.06.i45
  %33 = load float, ptr %32, align 4, !tbaa !36
  %34 = getelementptr inbounds nuw [4 x float], ptr @__const._blend_Lab_scale.scale, i64 0, i64 %.06.i45
  %35 = load float, ptr %34, align 4, !tbaa !36
  %36 = fmul reassoc nsz arcp contract afn float %35, %33
  %37 = getelementptr inbounds nuw float, ptr %9, i64 %.06.i45
  store float %36, ptr %37, align 4, !tbaa !36
  %38 = add nuw nsw i64 %.06.i45, 1
  %exitcond.not.i46 = icmp eq i64 %38, 4
  br i1 %exitcond.not.i46, label %_blend_Lab_scale.exit47, label %31

_blend_Lab_scale.exit47:                          ; preds = %31
  %39 = fmul reassoc nsz arcp contract afn float %20, %20
  %40 = load float, ptr %6, align 4, !tbaa !36
  %41 = load float, ptr %5, align 4, !tbaa !36
  %42 = tail call reassoc nsz arcp contract afn float @llvm.fabs.f32(float %41)
  %43 = fadd reassoc nsz arcp contract afn float %42, %40
  %44 = load float, ptr %8, align 16, !tbaa !36
  %45 = fadd reassoc nsz arcp contract afn float %44, %42
  %46 = tail call reassoc nsz arcp contract afn float @llvm.maxnum.f32(float %45, float 0.000000e+00)
  %47 = tail call reassoc nsz arcp contract afn noundef float @llvm.minnum.f32(float %46, float %43)
  %48 = load float, ptr %9, align 16, !tbaa !36
  %49 = fadd reassoc nsz arcp contract afn float %48, %42
  %50 = tail call reassoc nsz arcp contract afn float @llvm.maxnum.f32(float %49, float 0.000000e+00)
  %51 = tail call reassoc nsz arcp contract afn noundef float @llvm.minnum.f32(float %50, float %43)
  %52 = fmul reassoc nsz arcp contract afn float %43, 5.000000e-01
  %53 = fmul reassoc nsz arcp contract afn float %43, 2.000000e+00
  %54 = fcmp reassoc nsz arcp contract afn ogt float %51, %52
  br i1 %54, label %55, label %59

55:                                               ; preds = %_blend_Lab_scale.exit47
  %56 = fsub reassoc nsz arcp contract afn float %51, %52
  %57 = fmul reassoc nsz arcp contract afn float %56, %53
  %58 = tail call reassoc nsz arcp contract afn float @llvm.maxnum.f32(float %47, float %57)
  br label %62

59:                                               ; preds = %_blend_Lab_scale.exit47
  %60 = fmul reassoc nsz arcp contract afn float %51, %53
  %61 = tail call reassoc nsz arcp contract afn float @llvm.minnum.f32(float %47, float %60)
  br label %62

62:                                               ; preds = %59, %55
  %63 = phi reassoc nsz arcp contract afn float [ %58, %55 ], [ %61, %59 ]
  %64 = fsub reassoc nsz arcp contract afn float %63, %47
  %65 = fmul reassoc nsz arcp contract afn float %39, %64
  %66 = fadd reassoc nsz arcp contract afn float %65, %47
  %67 = tail call reassoc nsz arcp contract afn float @llvm.maxnum.f32(float %66, float 0.000000e+00)
  %68 = tail call reassoc nsz arcp contract afn noundef float @llvm.minnum.f32(float %67, float %43)
  %69 = fsub reassoc nsz arcp contract afn float %68, %42
  store float %69, ptr %9, align 16, !tbaa !36
  %70 = load float, ptr %10, align 4, !tbaa !36
  %71 = load float, ptr %11, align 4, !tbaa !36
  %72 = load float, ptr %12, align 4, !tbaa !36
  %73 = tail call reassoc nsz arcp contract afn float @llvm.maxnum.f32(float %70, float %71)
  %74 = tail call reassoc nsz arcp contract afn noundef float @llvm.minnum.f32(float %73, float %72)
  store float %74, ptr %13, align 4, !tbaa !36
  %75 = load float, ptr %14, align 8, !tbaa !36
  %76 = load float, ptr %15, align 4, !tbaa !36
  %77 = load float, ptr %16, align 4, !tbaa !36
  %78 = tail call reassoc nsz arcp contract afn float @llvm.maxnum.f32(float %75, float %76)
  %79 = tail call reassoc nsz arcp contract afn noundef float @llvm.minnum.f32(float %78, float %77)
  store float %79, ptr %17, align 8, !tbaa !36
  %80 = getelementptr inbounds nuw float, ptr %2, i64 %.04250
  br label %81

81:                                               ; preds = %81, %62
  %.06.i48 = phi i64 [ 0, %62 ], [ %88, %81 ]
  %82 = getelementptr inbounds nuw float, ptr %9, i64 %.06.i48
  %83 = load float, ptr %82, align 4, !tbaa !36
  %84 = getelementptr inbounds nuw [4 x float], ptr @__const._blend_Lab_rescale.scale, i64 0, i64 %.06.i48
  %85 = load float, ptr %84, align 4, !tbaa !36
  %86 = fmul reassoc nsz arcp contract afn float %85, %83
  %87 = getelementptr inbounds nuw float, ptr %80, i64 %.06.i48
  store float %86, ptr %87, align 4, !tbaa !36
  %88 = add nuw nsw i64 %.06.i48, 1
  %exitcond.not.i49 = icmp eq i64 %88, 4
  br i1 %exitcond.not.i49, label %_blend_Lab_rescale.exit, label %81

_blend_Lab_rescale.exit:                          ; preds = %81
  %89 = or disjoint i64 %.04250, 3
  %90 = getelementptr inbounds nuw float, ptr %2, i64 %89
  store float %20, ptr %90, align 4, !tbaa !36
  call void @llvm.lifetime.end.p0(i64 16, ptr nonnull %9) #8
  call void @llvm.lifetime.end.p0(i64 16, ptr nonnull %8) #8
  %91 = add nuw i64 %.051, 1
  %92 = add i64 %.04250, 4
  %exitcond.not = icmp eq i64 %91, %4
  br i1 %exitcond.not, label %._crit_edge, label %18
}